; Function Attrs: mustprogress uwtable
define void @_ZN6colvar16orientation_projC2ERKNSt7__cxx1112basic_stringIcSt11char_traitsIcESaIcEEE(ptr noundef nonnull align 8 dereferenceable(2336) %0, ptr noundef nonnull align 8 dereferenceable(32) %1) unnamed_addr #2 align 2 personality ptr @__gxx_personality_v0 {
  %3 = alloca %"class.std::__cxx11::basic_string", align 8
  %4 = alloca %"class.std::allocator.28", align 1
  %5 = alloca i32, align 4
  tail call void @_ZN6colvar11orientationC2Ev(ptr noundef nonnull align 8 dereferenceable(2336) %0)
  store ptr getelementptr inbounds inrange(-16, 216) ({ [29 x ptr], [8 x ptr] }, ptr @_ZTVN6colvar16orientation_projE, i64 0, i32 0, i64 2), ptr %0, align 8
  %6 = getelementptr inbounds i8, ptr %0, i64 320
  store ptr getelementptr inbounds inrange(-16, 48) ({ [29 x ptr], [8 x ptr] }, ptr @_ZTVN6colvar16orientation_projE, i64 0, i32 1, i64 2), ptr %6, align 8
  call void @_ZNSaIcEC1Ev(ptr noundef nonnull align 1 dereferenceable(1) %4) #23
  %7 = invoke noundef ptr @_ZNSt7__cxx1112basic_stringIcSt11char_traitsIcESaIcEE13_M_local_dataEv(ptr noundef nonnull align 8 dereferenceable(32) %3)
          to label %.noexc unwind label %18

.noexc:                                           ; preds = %2
  invoke void @_ZNSt7__cxx1112basic_stringIcSt11char_traitsIcESaIcEE12_Alloc_hiderC1EPcRKS3_(ptr noundef nonnull align 8 dereferenceable(8) %3, ptr noundef %7, ptr noundef nonnull align 1 dereferenceable(1) %4)
          to label %.noexc8 unwind label %18

.noexc8:                                          ; preds = %.noexc
  invoke void @_ZNSt7__cxx1112basic_stringIcSt11char_traitsIcESaIcEE12_M_constructIPKcEEvT_S8_St20forward_iterator_tag(ptr noundef nonnull align 8 dereferenceable(32) %3, ptr noundef nonnull @.str.24, ptr noundef nonnull getelementptr inbounds ([16 x i8], ptr @.str.24, i64 0, i64 15))
          to label %_ZNSt7__cxx1112basic_stringIcSt11char_traitsIcESaIcEEC2IS3_EEPKcRKS3_.exit unwind label %8

8:                                                ; preds = %.noexc8
  %9 = landingpad { ptr, i32 }
          cleanup
  call void @_ZNSaIcED2Ev(ptr noundef nonnull align 1 dereferenceable(1) %3) #23
  br label %.body

_ZNSt7__cxx1112basic_stringIcSt11char_traitsIcESaIcEEC2IS3_EEPKcRKS3_.exit: ; preds = %.noexc8
  %10 = invoke noundef i32 @_ZN6colvar3cvc17set_function_typeERKNSt7__cxx1112basic_stringIcSt11char_traitsIcESaIcEEE(ptr noundef nonnull align 8 dereferenceable(1648) %0, ptr noundef nonnull align 8 dereferenceable(32) %3)
          to label %11 unwind label %20

11:                                               ; preds = %_ZNSt7__cxx1112basic_stringIcSt11char_traitsIcESaIcEEC2IS3_EEPKcRKS3_.exit
  call void @_ZNSt7__cxx1112basic_stringIcSt11char_traitsIcESaIcEED1Ev(ptr noundef nonnull align 8 dereferenceable(32) %3) #23
  call void @_ZNSaIcED1Ev(ptr noundef nonnull align 1 dereferenceable(1) %4) #23
  %12 = invoke noundef i32 @_ZN10colvardeps6enableEibb(ptr noundef nonnull align 8 dereferenceable(120) %6, i32 noundef 7, i1 noundef zeroext false, i1 noundef zeroext true)
          to label %13 unwind label %22

13:                                               ; preds = %11
  %14 = getelementptr inbounds i8, ptr %0, i64 632
  store i32 1, ptr %5, align 4
  invoke void @_ZN11colvarvalue4typeERKNS_4TypeE(ptr noundef nonnull align 8 dereferenceable(168) %14, ptr noundef nonnull align 4 dereferenceable(4) %5)
          to label %15 unwind label %22

15:                                               ; preds = %13
  invoke void @_ZN6colvar3cvc22init_scalar_boundariesEdd(ptr noundef nonnull align 8 dereferenceable(1648) %0, double noundef 0.000000e+00, double noundef 1.000000e+00)
          to label %16 unwind label %22

16:                                               ; preds = %15
  %17 = invoke noundef i32 @_ZN6colvar11orientation4initERKNSt7__cxx1112basic_stringIcSt11char_traitsIcESaIcEEE(ptr noundef nonnull align 8 dereferenceable(2336) %0, ptr noundef nonnull align 8 dereferenceable(32) %1)
          to label %_ZN6colvar16orientation_proj4initERKNSt7__cxx1112basic_stringIcSt11char_traitsIcESaIcEEE.exit unwind label %22

_ZN6colvar16orientation_proj4initERKNSt7__cxx1112basic_stringIcSt11char_traitsIcESaIcEEE.exit: ; preds = %16
  ret void

18:                                               ; preds = %.noexc, %2
  %19 = landingpad { ptr, i32 }
          cleanup
  br label %.body

20:                                               ; preds = %_ZNSt7__cxx1112basic_stringIcSt11char_traitsIcESaIcEEC2IS3_EEPKcRKS3_.exit
  %21 = landingpad { ptr, i32 }
          cleanup
  call void @_ZNSt7__cxx1112basic_stringIcSt11char_traitsIcESaIcEED1Ev(ptr noundef nonnull align 8 dereferenceable(32) %3) #23
  br label %.body

.body:                                            ; preds = %18, %8, %20
  %.pn = phi { ptr, i32 } [ %21, %20 ], [ %19, %18 ], [ %9, %8 ]
  call void @_ZNSaIcED1Ev(ptr noundef nonnull align 1 dereferenceable(1) %4) #23
  br label %24

22:                                               ; preds = %16, %15, %13, %11
  %23 = landingpad { ptr, i32 }
          cleanup
  br label %24

24:                                               ; preds = %22, %.body
  %.pn6 = phi { ptr, i32 } [ %23, %22 ], [ %.pn, %.body ]
  call void @_ZN6colvar11orientationD2Ev(ptr noundef nonnull align 8 dereferenceable(2336) %0) #23
  resume { ptr, i32 } %.pn6
}